; Function Attrs: mustprogress uwtable
define noundef double @_ZNK8QuantLib12SyntheticCDO16protectionLegNPVEv(ptr noundef nonnull align 8 dereferenceable(264) %this) local_unnamed_addr #8 align 2 {
entry:
  %vtable = load ptr, ptr %this, align 8, !tbaa !33
  %vfn = getelementptr inbounds i8, ptr %vtable, i64 24
  %0 = load ptr, ptr %vfn, align 8
  tail call void %0(ptr noundef nonnull align 8 dereferenceable(104) %this)
  %side_ = getelementptr inbounds nuw i8, ptr %this, i64 120
  %1 = load i32, ptr %side_, align 8, !tbaa !50
  %cmp = icmp eq i32 %1, 0
  %protectionValue_ = getelementptr inbounds nuw i8, ptr %this, i64 208
  %2 = load double, ptr %protectionValue_, align 8
  %fneg = fneg double %2
  %retval.0 = select i1 %cmp, double %fneg, double %2
  ret double %retval.0
}